target datalayout = "e-m:e-p270:32:32-p271:32:32-p272:64:64-i64:64-i128:128-f80:128-n8:16:32:64-S128"
target triple = "x86_64-pc-linux-gnu"

%"class.QtPrivate::RefCount" = type { %class.QBasicAtomicInteger }
%class.QBasicAtomicInteger = type { %"struct.std::atomic.67" }
%"struct.std::atomic.67" = type { %"struct.std::__atomic_base.68" }
%"struct.std::__atomic_base.68" = type { i32 }
%struct.QArrayData = type { %"class.QtPrivate::RefCount", i32, i32, i64 }
%class.QString = type { ptr }
%class.QObject = type { ptr, %class.QScopedPointer }
%class.QScopedPointer = type { ptr }
%class.QFileInfo = type { %class.QSharedDataPointer.189 }
%class.QSharedDataPointer.189 = type { ptr }
%class.QFile = type { %class.QFileDevice }
%class.QFileDevice = type { %class.QIODevice }
%class.QIODevice = type { %class.QObject }
%class.QFlags.236 = type { i32 }
%class.QDomDocument = type { %class.QDomNode }
%class.QDomNode = type { ptr }
%class.QDomDocumentType = type { %class.QDomNode }

@.str.118 = private unnamed_addr constant [12 x i8] c"XmlDocument\00", align 1
@.str.119 = private unnamed_addr constant [13 x i8] c"RegProjectML\00", align 1
@.str.120 = private unnamed_addr constant [10 x i8] c"ViewState\00", align 1

; Function Attrs: mustprogress nounwind uwtable
define linkonce_odr noundef ptr @_ZN10QArrayData4dataEv(ptr noundef nonnull align 8 dereferenceable(24) %0) #4 comdat align 2 {
  %2 = alloca ptr, align 8
  store ptr %0, ptr %2, align 8
  %3 = load ptr, ptr %2, align 8
  %4 = getelementptr inbounds %struct.QArrayData, ptr %3, i32 0, i32 3
  %5 = load i64, ptr %4, align 8
  %6 = getelementptr inbounds i8, ptr %3, i64 %5
  ret ptr %6
}

; Function Attrs: mustprogress uwtable
define linkonce_odr noundef ptr @_ZN15QTypedArrayDataItE4dataEv(ptr noundef nonnull align 8 dereferenceable(24) %0) #5 comdat align 2 {
  %2 = alloca ptr, align 8
  store ptr %0, ptr %2, align 8
  %3 = load ptr, ptr %2, align 8
  %4 = call noundef ptr @_ZN10QArrayData4dataEv(ptr noundef nonnull align 8 dereferenceable(24) %3)
  ret ptr %4
}

; Function Attrs: mustprogress nounwind uwtable
define linkonce_odr noundef i32 @_ZNK7QString4sizeEv(ptr noundef nonnull align 8 dereferenceable(8) %0) #4 comdat align 2 {
  %2 = alloca ptr, align 8
  store ptr %0, ptr %2, align 8
  %3 = load ptr, ptr %2, align 8
  %4 = getelementptr inbounds %class.QString, ptr %3, i32 0, i32 0
  %5 = load ptr, ptr %4, align 8
  %6 = getelementptr inbounds %struct.QArrayData, ptr %5, i32 0, i32 1
  %7 = load i32, ptr %6, align 4
  ret i32 %7
}

; Function Attrs: mustprogress uwtable
define linkonce_odr noundef ptr @_ZNK7QString9constDataEv(ptr noundef nonnull align 8 dereferenceable(8) %0) #5 comdat align 2 {
  %2 = alloca ptr, align 8
  store ptr %0, ptr %2, align 8
  %3 = load ptr, ptr %2, align 8
  %4 = getelementptr inbounds %class.QString, ptr %3, i32 0, i32 0
  %5 = load ptr, ptr %4, align 8
  %6 = call noundef ptr @_ZN15QTypedArrayDataItE4dataEv(ptr noundef nonnull align 8 dereferenceable(24) %5)
  ret ptr %6
}

; Function Attrs: mustprogress uwtable
define linkonce_odr noundef zeroext i1 @_ZNK7QStringeqEPKc(ptr noundef nonnull align 8 dereferenceable(8) %0, ptr noundef %1) #5 comdat align 2 {
  %3 = alloca ptr, align 8
  %4 = alloca ptr, align 8
  store ptr %0, ptr %3, align 8
  store ptr %1, ptr %4, align 8
  %5 = load ptr, ptr %3, align 8
  %6 = call noundef ptr @_ZNK7QString9constDataEv(ptr noundef nonnull align 8 dereferenceable(8) %5)
  %7 = call noundef i32 @_ZNK7QString4sizeEv(ptr noundef nonnull align 8 dereferenceable(8) %5)
  %8 = load ptr, ptr %4, align 8
  %9 = call noundef i32 @_ZN7QString14compare_helperEPK5QChariPKciN2Qt15CaseSensitivityE(ptr noundef %6, i32 noundef %7, ptr noundef %8, i32 noundef -1, i32 noundef 1)
  %10 = icmp eq i32 %9, 0
  ret i1 %10
}

; Function Attrs: mustprogress nounwind uwtable
define linkonce_odr void @_ZN16QDomDocumentTypeD2Ev(ptr noundef nonnull align 8 dereferenceable(8) %0) unnamed_addr #4 comdat align 2 {
  %2 = alloca ptr, align 8
  store ptr %0, ptr %2, align 8
  %3 = load ptr, ptr %2, align 8
  call void @_ZN8QDomNodeD2Ev(ptr noundef nonnull align 8 dereferenceable(8) %3) #3
  ret void
}

; Function Attrs: mustprogress uwtable
define linkonce_odr void @_ZN7QStringC2EPKc(ptr noundef nonnull align 8 dereferenceable(8) %0, ptr noundef %1) unnamed_addr #5 comdat align 2 {
  %3 = alloca ptr, align 8
  %4 = alloca ptr, align 8
  store ptr %0, ptr %3, align 8
  store ptr %1, ptr %4, align 8
  %5 = load ptr, ptr %3, align 8
  %6 = getelementptr inbounds %class.QString, ptr %5, i32 0, i32 0
  %7 = load ptr, ptr %4, align 8
  %8 = load ptr, ptr %4, align 8
  %9 = icmp ne ptr %8, null
  br i1 %9, label %10, label %14

10:                                               ; preds = %2
  %11 = load ptr, ptr %4, align 8
  %12 = call i64 @strlen(ptr noundef %11) #23
  %13 = trunc i64 %12 to i32
  br label %15

14:                                               ; preds = %2
  br label %15

15:                                               ; preds = %14, %10
  %16 = phi i32 [ %13, %10 ], [ -1, %14 ]
  %17 = call noundef ptr @_ZN7QString16fromAscii_helperEPKci(ptr noundef %7, i32 noundef %16)
  store ptr %17, ptr %6, align 8
  ret void
}

; Function Attrs: mustprogress nounwind uwtable
define linkonce_odr void @_ZN6QFlagsIN9QIODevice12OpenModeFlagEEC2ES1_(ptr noundef nonnull align 4 dereferenceable(4) %0, i32 noundef %1) unnamed_addr #4 comdat align 2 {
  %3 = alloca ptr, align 8
  %4 = alloca i32, align 4
  store ptr %0, ptr %3, align 8
  store i32 %1, ptr %4, align 4
  %5 = load ptr, ptr %3, align 8
  %6 = getelementptr inbounds %class.QFlags.236, ptr %5, i32 0, i32 0
  %7 = load i32, ptr %4, align 4
  store i32 %7, ptr %6, align 4
  ret void
}

; Function Attrs: mustprogress uwtable
define noundef zeroext i1 @_ZN6GLArea16readViewFromFileERK7QString(ptr noundef nonnull align 8 dereferenceable(1676) %0, ptr noundef nonnull align 8 dereferenceable(8) %1) #5 align 2 personality ptr @__gxx_personality_v0 {
  %3 = alloca i1, align 1
  %4 = alloca ptr, align 8
  %5 = alloca ptr, align 8
  %6 = alloca %class.QFile, align 8
  %7 = alloca %class.QFileInfo, align 8
  %8 = alloca ptr, align 8
  %9 = alloca i32, align 4
  %10 = alloca %class.QFlags.236, align 4
  %11 = alloca i32, align 4
  %12 = alloca %class.QString, align 8
  %13 = alloca %class.QDomDocument, align 8
  %14 = alloca %class.QString, align 8
  %15 = alloca %class.QString, align 8
  %16 = alloca %class.QDomDocumentType, align 8
  store ptr %0, ptr %4, align 8
  store ptr %1, ptr %5, align 8
  %17 = load ptr, ptr %4, align 8
  %18 = load ptr, ptr %5, align 8
  call void @_ZN5QFileC1ERK7QString(ptr noundef nonnull align 8 dereferenceable(16) %6, ptr noundef nonnull align 8 dereferenceable(8) %18)
  %19 = load ptr, ptr %5, align 8
  invoke void @_ZN9QFileInfoC1ERK7QString(ptr noundef nonnull align 8 dereferenceable(8) %7, ptr noundef nonnull align 8 dereferenceable(8) %19)
          to label %20 unwind label %27

20:                                               ; preds = %2
  call void @_ZN6QFlagsIN9QIODevice12OpenModeFlagEEC2ES1_(ptr noundef nonnull align 4 dereferenceable(4) %10, i32 noundef 1) #3
  %21 = getelementptr inbounds %class.QFlags.236, ptr %10, i32 0, i32 0
  %22 = load i32, ptr %21, align 4
  %23 = invoke noundef zeroext i1 @_ZN5QFile4openE6QFlagsIN9QIODevice12OpenModeFlagEE(ptr noundef nonnull align 8 dereferenceable(16) %6, i32 %22)
          to label %24 unwind label %31

24:                                               ; preds = %20
  %25 = xor i1 %23, true
  br i1 %25, label %26, label %35

26:                                               ; preds = %24
  store i1 false, ptr %3, align 1
  store i32 1, ptr %11, align 4
  br label %80

27:                                               ; preds = %2
  %28 = landingpad { ptr, i32 }
          cleanup
  %29 = extractvalue { ptr, i32 } %28, 0
  store ptr %29, ptr %8, align 8
  %30 = extractvalue { ptr, i32 } %28, 1
  store i32 %30, ptr %9, align 4
  br label %83

31:                                               ; preds = %35, %20
  %32 = landingpad { ptr, i32 }
          cleanup
  %33 = extractvalue { ptr, i32 } %32, 0
  store ptr %33, ptr %8, align 8
  %34 = extractvalue { ptr, i32 } %32, 1
  store i32 %34, ptr %9, align 4
  br label %82

35:                                               ; preds = %24
  invoke void @_ZNK9QFileInfo16absoluteFilePathEv(ptr dead_on_unwind writable sret(%class.QString) align 8 %12, ptr noundef nonnull align 8 dereferenceable(8) %7)
          to label %36 unwind label %31

36:                                               ; preds = %35
  invoke void @_ZN7QStringC2EPKc(ptr noundef nonnull align 8 dereferenceable(8) %14, ptr noundef @.str.118)
          to label %37 unwind label %42

37:                                               ; preds = %36
  invoke void @_ZN12QDomDocumentC1ERK7QString(ptr noundef nonnull align 8 dereferenceable(8) %13, ptr noundef nonnull align 8 dereferenceable(8) %14)
          to label %38 unwind label %46

38:                                               ; preds = %37
  call void @_ZN7QStringD2Ev(ptr noundef nonnull align 8 dereferenceable(8) %14) #3
  %39 = invoke noundef zeroext i1 @_ZN12QDomDocument10setContentEP9QIODeviceP7QStringPiS4_(ptr noundef nonnull align 8 dereferenceable(8) %13, ptr noundef %6, ptr noundef null, ptr noundef null, ptr noundef null)
          to label %40 unwind label %50

40:                                               ; preds = %38
  br i1 %39, label %54, label %41

41:                                               ; preds = %40
  store i1 false, ptr %3, align 1
  store i32 1, ptr %11, align 4
  br label %77

42:                                               ; preds = %36
  %43 = landingpad { ptr, i32 }
          cleanup
  %44 = extractvalue { ptr, i32 } %43, 0
  store ptr %44, ptr %8, align 8
  %45 = extractvalue { ptr, i32 } %43, 1
  store i32 %45, ptr %9, align 4
  br label %79

46:                                               ; preds = %37
  %47 = landingpad { ptr, i32 }
          cleanup
  %48 = extractvalue { ptr, i32 } %47, 0
  store ptr %48, ptr %8, align 8
  %49 = extractvalue { ptr, i32 } %47, 1
  store i32 %49, ptr %9, align 4
  call void @_ZN7QStringD2Ev(ptr noundef nonnull align 8 dereferenceable(8) %14) #3
  br label %79

50:                                               ; preds = %54, %38
  %51 = landingpad { ptr, i32 }
          cleanup
  %52 = extractvalue { ptr, i32 } %51, 0
  store ptr %52, ptr %8, align 8
  %53 = extractvalue { ptr, i32 } %51, 1
  store i32 %53, ptr %9, align 4
  br label %78

54:                                               ; preds = %40
  invoke void @_ZNK12QDomDocument7doctypeEv(ptr dead_on_unwind writable sret(%class.QDomDocumentType) align 8 %16, ptr noundef nonnull align 8 dereferenceable(8) %13)
          to label %55 unwind label %50

55:                                               ; preds = %54
  invoke void @_ZNK16QDomDocumentType4nameEv(ptr dead_on_unwind writable sret(%class.QString) align 8 %15, ptr noundef nonnull align 8 dereferenceable(8) %16)
          to label %56 unwind label %61

56:                                               ; preds = %55
  call void @_ZN16QDomDocumentTypeD2Ev(ptr noundef nonnull align 8 dereferenceable(8) %16) #3
  %57 = invoke noundef zeroext i1 @_ZNK7QStringeqEPKc(ptr noundef nonnull align 8 dereferenceable(8) %15, ptr noundef @.str.119)
          to label %58 unwind label %65

58:                                               ; preds = %56
  br i1 %57, label %59, label %69

59:                                               ; preds = %58
  invoke void @_ZN6GLArea25loadShotFromTextAlignFileERK12QDomDocument(ptr noundef nonnull align 8 dereferenceable(1676) %17, ptr noundef nonnull align 8 dereferenceable(8) %13)
          to label %60 unwind label %65

60:                                               ; preds = %59
  br label %75

61:                                               ; preds = %55
  %62 = landingpad { ptr, i32 }
          cleanup
  %63 = extractvalue { ptr, i32 } %62, 0
  store ptr %63, ptr %8, align 8
  %64 = extractvalue { ptr, i32 } %62, 1
  store i32 %64, ptr %9, align 4
  call void @_ZN16QDomDocumentTypeD2Ev(ptr noundef nonnull align 8 dereferenceable(8) %16) #3
  br label %78

65:                                               ; preds = %75, %72, %69, %59, %56
  %66 = landingpad { ptr, i32 }
          cleanup
  %67 = extractvalue { ptr, i32 } %66, 0
  store ptr %67, ptr %8, align 8
  %68 = extractvalue { ptr, i32 } %66, 1
  store i32 %68, ptr %9, align 4
  call void @_ZN7QStringD2Ev(ptr noundef nonnull align 8 dereferenceable(8) %15) #3
  br label %78

69:                                               ; preds = %58
  %70 = invoke noundef zeroext i1 @_ZNK7QStringeqEPKc(ptr noundef nonnull align 8 dereferenceable(8) %15, ptr noundef @.str.120)
          to label %71 unwind label %65

71:                                               ; preds = %69
  br i1 %70, label %72, label %74

72:                                               ; preds = %71
  invoke void @_ZN6GLArea25loadViewFromViewStateFileERK12QDomDocument(ptr noundef nonnull align 8 dereferenceable(1676) %17, ptr noundef nonnull align 8 dereferenceable(8) %13)
          to label %73 unwind label %65

73:                                               ; preds = %72
  br label %74

74:                                               ; preds = %73, %71
  br label %75

75:                                               ; preds = %74, %60
  invoke void @_ZN11QFileDevice5closeEv(ptr noundef nonnull align 8 dereferenceable(16) %6)
          to label %76 unwind label %65

76:                                               ; preds = %75
  store i1 true, ptr %3, align 1
  store i32 1, ptr %11, align 4
  call void @_ZN7QStringD2Ev(ptr noundef nonnull align 8 dereferenceable(8) %15) #3
  br label %77

77:                                               ; preds = %76, %41
  call void @_ZN12QDomDocumentD1Ev(ptr noundef nonnull align 8 dereferenceable(8) %13) #3
  call void @_ZN7QStringD2Ev(ptr noundef nonnull align 8 dereferenceable(8) %12) #3
  br label %80

78:                                               ; preds = %65, %61, %50
  call void @_ZN12QDomDocumentD1Ev(ptr noundef nonnull align 8 dereferenceable(8) %13) #3
  br label %79

79:                                               ; preds = %78, %46, %42
  call void @_ZN7QStringD2Ev(ptr noundef nonnull align 8 dereferenceable(8) %12) #3
  br label %82

80:                                               ; preds = %77, %26
  call void @_ZN9QFileInfoD1Ev(ptr noundef nonnull align 8 dereferenceable(8) %7) #3
  call void @_ZN5QFileD1Ev(ptr noundef nonnull align 8 dereferenceable(16) %6) #3
  %81 = load i1, ptr %3, align 1
  ret i1 %81

82:                                               ; preds = %79, %31
  call void @_ZN9QFileInfoD1Ev(ptr noundef nonnull align 8 dereferenceable(8) %7) #3
  br label %83

83:                                               ; preds = %82, %27
  call void @_ZN5QFileD1Ev(ptr noundef nonnull align 8 dereferenceable(16) %6) #3
  br label %84

84:                                               ; preds = %83
  %85 = load ptr, ptr %8, align 8
  %86 = load i32, ptr %9, align 4
  %87 = insertvalue { ptr, i32 } poison, ptr %85, 0
  %88 = insertvalue { ptr, i32 } %87, i32 %86, 1
  resume { ptr, i32 } %88
}