; Function Attrs: mustprogress uwtable
define noundef zeroext i1 @_ZN6GLArea16readViewFromFileERK7QString(ptr noundef nonnull align 8 dereferenceable(1676) %0, ptr noundef nonnull align 8 dereferenceable(8) %1) local_unnamed_addr #9 align 2 personality ptr @__gxx_personality_v0 {
  %3 = alloca %class.QFile, align 8
  %4 = alloca %class.QFileInfo, align 8
  %5 = alloca %class.QString, align 8
  %6 = alloca %class.QDomDocument, align 8
  %7 = alloca %class.QString, align 8
  %8 = alloca %class.QString, align 8
  %9 = alloca %class.QDomDocumentType, align 8
  call void @_ZN5QFileC1ERK7QString(ptr noundef nonnull align 8 dereferenceable(16) %3, ptr noundef nonnull align 8 dereferenceable(8) %1)
  invoke void @_ZN9QFileInfoC1ERK7QString(ptr noundef nonnull align 8 dereferenceable(8) %4, ptr noundef nonnull align 8 dereferenceable(8) %1)
          to label %10 unwind label %13

10:                                               ; preds = %2
  %11 = invoke noundef zeroext i1 @_ZN5QFile4openE6QFlagsIN9QIODevice12OpenModeFlagEE(ptr noundef nonnull align 8 dereferenceable(16) %3, i32 1)
          to label %12 unwind label %15

12:                                               ; preds = %10
  br i1 %11, label %17, label %_ZN7QStringD2Ev.exit27

13:                                               ; preds = %2
  %14 = landingpad { ptr, i32 }
          cleanup
  br label %75

15:                                               ; preds = %17, %10
  %16 = landingpad { ptr, i32 }
          cleanup
  br label %74

17:                                               ; preds = %12
  invoke void @_ZNK9QFileInfo16absoluteFilePathEv(ptr dead_on_unwind nonnull writable sret(%class.QString) align 8 %5, ptr noundef nonnull align 8 dereferenceable(8) %4)
          to label %18 unwind label %15

18:                                               ; preds = %17
  %19 = invoke noundef ptr @_ZN7QString16fromAscii_helperEPKci(ptr noundef nonnull @.str.118, i32 noundef 11)
          to label %20 unwind label %28

20:                                               ; preds = %18
  store ptr %19, ptr %7, align 8
  invoke void @_ZN12QDomDocumentC1ERK7QString(ptr noundef nonnull align 8 dereferenceable(8) %6, ptr noundef nonnull align 8 dereferenceable(8) %7)
          to label %21 unwind label %30

21:                                               ; preds = %20
  %22 = load ptr, ptr %7, align 8
  %23 = load atomic i32, ptr %22 monotonic, align 4
  switch i32 %23, label %_ZN9QtPrivate8RefCount5derefEv.exit.i [
    i32 0, label %_ZN9QtPrivate8RefCount5derefEv.exit.thread2.i
    i32 -1, label %_ZN7QStringD2Ev.exit
  ]

_ZN9QtPrivate8RefCount5derefEv.exit.i:            ; preds = %21
  %24 = atomicrmw sub ptr %22, i32 1 seq_cst, align 4
  %.not.i = icmp eq i32 %24, 1
  br i1 %.not.i, label %_ZN9QtPrivate8RefCount5derefEv.exit._ZN9QtPrivate8RefCount5derefEv.exit.thread2_crit_edge.i, label %_ZN7QStringD2Ev.exit

_ZN9QtPrivate8RefCount5derefEv.exit._ZN9QtPrivate8RefCount5derefEv.exit.thread2_crit_edge.i: ; preds = %_ZN9QtPrivate8RefCount5derefEv.exit.i
  %.pre.i = load ptr, ptr %7, align 8
  br label %_ZN9QtPrivate8RefCount5derefEv.exit.thread2.i

_ZN9QtPrivate8RefCount5derefEv.exit.thread2.i:    ; preds = %_ZN9QtPrivate8RefCount5derefEv.exit._ZN9QtPrivate8RefCount5derefEv.exit.thread2_crit_edge.i, %21
  %25 = phi ptr [ %.pre.i, %_ZN9QtPrivate8RefCount5derefEv.exit._ZN9QtPrivate8RefCount5derefEv.exit.thread2_crit_edge.i ], [ %22, %21 ]
  call void @_ZN10QArrayData10deallocateEPS_mm(ptr noundef %25, i64 noundef 2, i64 noundef 8) #32
  br label %_ZN7QStringD2Ev.exit

_ZN7QStringD2Ev.exit:                             ; preds = %21, %_ZN9QtPrivate8RefCount5derefEv.exit.i, %_ZN9QtPrivate8RefCount5derefEv.exit.thread2.i
  %26 = invoke noundef zeroext i1 @_ZN12QDomDocument10setContentEP9QIODeviceP7QStringPiS4_(ptr noundef nonnull align 8 dereferenceable(8) %6, ptr noundef nonnull %3, ptr noundef null, ptr noundef null, ptr noundef null)
          to label %27 unwind label %32

27:                                               ; preds = %_ZN7QStringD2Ev.exit
  br i1 %26, label %34, label %_ZN7QStringD2Ev.exit21

28:                                               ; preds = %18
  %29 = landingpad { ptr, i32 }
          cleanup
  br label %73

30:                                               ; preds = %20
  %31 = landingpad { ptr, i32 }
          cleanup
  call void @_ZN7QStringD2Ev(ptr noundef nonnull align 8 dereferenceable(8) %7) #32
  br label %73

32:                                               ; preds = %34, %_ZN7QStringD2Ev.exit
  %33 = landingpad { ptr, i32 }
          cleanup
  br label %72

34:                                               ; preds = %27
  invoke void @_ZNK12QDomDocument7doctypeEv(ptr dead_on_unwind nonnull writable sret(%class.QDomDocumentType) align 8 %9, ptr noundef nonnull align 8 dereferenceable(8) %6)
          to label %35 unwind label %32

35:                                               ; preds = %34
  invoke void @_ZNK16QDomDocumentType4nameEv(ptr dead_on_unwind nonnull writable sret(%class.QString) align 8 %8, ptr noundef nonnull align 8 dereferenceable(8) %9)
          to label %36 unwind label %47

36:                                               ; preds = %35
  call void @_ZN8QDomNodeD2Ev(ptr noundef nonnull align 8 dereferenceable(8) %9) #32
  %37 = load ptr, ptr %8, align 8
  %38 = getelementptr inbounds i8, ptr %37, i64 16
  %39 = load i64, ptr %38, align 8
  %40 = getelementptr inbounds i8, ptr %37, i64 %39
  %41 = getelementptr inbounds i8, ptr %37, i64 4
  %42 = load i32, ptr %41, align 4
  %43 = invoke noundef i32 @_ZN7QString14compare_helperEPK5QChariPKciN2Qt15CaseSensitivityE(ptr noundef nonnull %40, i32 noundef %42, ptr noundef nonnull @.str.119, i32 noundef -1, i32 noundef 1)
          to label %44 unwind label %49

44:                                               ; preds = %36
  %45 = icmp eq i32 %43, 0
  br i1 %45, label %46, label %51

46:                                               ; preds = %44
  invoke void @_ZN6GLArea25loadShotFromTextAlignFileERK12QDomDocument(ptr noundef nonnull align 8 dereferenceable(1676) %0, ptr noundef nonnull align 8 dereferenceable(8) %6)
          to label %62 unwind label %49

47:                                               ; preds = %35
  %48 = landingpad { ptr, i32 }
          cleanup
  call void @_ZN8QDomNodeD2Ev(ptr noundef nonnull align 8 dereferenceable(8) %9) #32
  br label %72

49:                                               ; preds = %51, %36, %62, %61, %46
  %50 = landingpad { ptr, i32 }
          cleanup
  call void @_ZN7QStringD2Ev(ptr noundef nonnull align 8 dereferenceable(8) %8) #32
  br label %72

51:                                               ; preds = %44
  %52 = load ptr, ptr %8, align 8
  %53 = getelementptr inbounds i8, ptr %52, i64 16
  %54 = load i64, ptr %53, align 8
  %55 = getelementptr inbounds i8, ptr %52, i64 %54
  %56 = getelementptr inbounds i8, ptr %52, i64 4
  %57 = load i32, ptr %56, align 4
  %58 = invoke noundef i32 @_ZN7QString14compare_helperEPK5QChariPKciN2Qt15CaseSensitivityE(ptr noundef nonnull %55, i32 noundef %57, ptr noundef nonnull @.str.120, i32 noundef -1, i32 noundef 1)
          to label %59 unwind label %49

59:                                               ; preds = %51
  %60 = icmp eq i32 %58, 0
  br i1 %60, label %61, label %62

61:                                               ; preds = %59
  invoke void @_ZN6GLArea25loadViewFromViewStateFileERK12QDomDocument(ptr noundef nonnull align 8 dereferenceable(1676) %0, ptr noundef nonnull align 8 dereferenceable(8) %6)
          to label %62 unwind label %49

62:                                               ; preds = %59, %61, %46
  invoke void @_ZN11QFileDevice5closeEv(ptr noundef nonnull align 8 dereferenceable(16) %3)
          to label %63 unwind label %49

63:                                               ; preds = %62
  %64 = load ptr, ptr %8, align 8
  %65 = load atomic i32, ptr %64 monotonic, align 4
  switch i32 %65, label %_ZN9QtPrivate8RefCount5derefEv.exit.i17 [
    i32 0, label %_ZN9QtPrivate8RefCount5derefEv.exit.thread2.i16
    i32 -1, label %_ZN7QStringD2Ev.exit21
  ]

_ZN9QtPrivate8RefCount5derefEv.exit.i17:          ; preds = %63
  %66 = atomicrmw sub ptr %64, i32 1 seq_cst, align 4
  %.not.i18 = icmp eq i32 %66, 1
  br i1 %.not.i18, label %_ZN9QtPrivate8RefCount5derefEv.exit._ZN9QtPrivate8RefCount5derefEv.exit.thread2_crit_edge.i19, label %_ZN7QStringD2Ev.exit21

_ZN9QtPrivate8RefCount5derefEv.exit._ZN9QtPrivate8RefCount5derefEv.exit.thread2_crit_edge.i19: ; preds = %_ZN9QtPrivate8RefCount5derefEv.exit.i17
  %.pre.i20 = load ptr, ptr %8, align 8
  br label %_ZN9QtPrivate8RefCount5derefEv.exit.thread2.i16

_ZN9QtPrivate8RefCount5derefEv.exit.thread2.i16:  ; preds = %_ZN9QtPrivate8RefCount5derefEv.exit._ZN9QtPrivate8RefCount5derefEv.exit.thread2_crit_edge.i19, %63
  %67 = phi ptr [ %.pre.i20, %_ZN9QtPrivate8RefCount5derefEv.exit._ZN9QtPrivate8RefCount5derefEv.exit.thread2_crit_edge.i19 ], [ %64, %63 ]
  call void @_ZN10QArrayData10deallocateEPS_mm(ptr noundef %67, i64 noundef 2, i64 noundef 8) #32
  br label %_ZN7QStringD2Ev.exit21

_ZN7QStringD2Ev.exit21:                           ; preds = %_ZN9QtPrivate8RefCount5derefEv.exit.thread2.i16, %_ZN9QtPrivate8RefCount5derefEv.exit.i17, %63, %27
  call void @_ZN12QDomDocumentD1Ev(ptr noundef nonnull align 8 dereferenceable(8) %6) #32
  %68 = load ptr, ptr %5, align 8
  %69 = load atomic i32, ptr %68 monotonic, align 4
  switch i32 %69, label %_ZN9QtPrivate8RefCount5derefEv.exit.i23 [
    i32 0, label %_ZN9QtPrivate8RefCount5derefEv.exit.thread2.i22
    i32 -1, label %_ZN7QStringD2Ev.exit27
  ]

_ZN9QtPrivate8RefCount5derefEv.exit.i23:          ; preds = %_ZN7QStringD2Ev.exit21
  %70 = atomicrmw sub ptr %68, i32 1 seq_cst, align 4
  %.not.i24 = icmp eq i32 %70, 1
  br i1 %.not.i24, label %_ZN9QtPrivate8RefCount5derefEv.exit._ZN9QtPrivate8RefCount5derefEv.exit.thread2_crit_edge.i25, label %_ZN7QStringD2Ev.exit27

_ZN9QtPrivate8RefCount5derefEv.exit._ZN9QtPrivate8RefCount5derefEv.exit.thread2_crit_edge.i25: ; preds = %_ZN9QtPrivate8RefCount5derefEv.exit.i23
  %.pre.i26 = load ptr, ptr %5, align 8
  br label %_ZN9QtPrivate8RefCount5derefEv.exit.thread2.i22

_ZN9QtPrivate8RefCount5derefEv.exit.thread2.i22:  ; preds = %_ZN9QtPrivate8RefCount5derefEv.exit._ZN9QtPrivate8RefCount5derefEv.exit.thread2_crit_edge.i25, %_ZN7QStringD2Ev.exit21
  %71 = phi ptr [ %.pre.i26, %_ZN9QtPrivate8RefCount5derefEv.exit._ZN9QtPrivate8RefCount5derefEv.exit.thread2_crit_edge.i25 ], [ %68, %_ZN7QStringD2Ev.exit21 ]
  call void @_ZN10QArrayData10deallocateEPS_mm(ptr noundef %71, i64 noundef 2, i64 noundef 8) #32
  br label %_ZN7QStringD2Ev.exit27

72:                                               ; preds = %49, %47, %32
  %.pn = phi { ptr, i32 } [ %50, %49 ], [ %48, %47 ], [ %33, %32 ]
  call void @_ZN12QDomDocumentD1Ev(ptr noundef nonnull align 8 dereferenceable(8) %6) #32
  br label %73

73:                                               ; preds = %72, %30, %28
  %.pn.pn = phi { ptr, i32 } [ %.pn, %72 ], [ %31, %30 ], [ %29, %28 ]
  call void @_ZN7QStringD2Ev(ptr noundef nonnull align 8 dereferenceable(8) %5) #32
  br label %74

_ZN7QStringD2Ev.exit27:                           ; preds = %_ZN9QtPrivate8RefCount5derefEv.exit.thread2.i22, %_ZN9QtPrivate8RefCount5derefEv.exit.i23, %_ZN7QStringD2Ev.exit21, %12
  %.110 = phi i1 [ false, %12 ], [ %26, %_ZN7QStringD2Ev.exit21 ], [ %26, %_ZN9QtPrivate8RefCount5derefEv.exit.i23 ], [ %26, %_ZN9QtPrivate8RefCount5derefEv.exit.thread2.i22 ]
  call void @_ZN9QFileInfoD1Ev(ptr noundef nonnull align 8 dereferenceable(8) %4) #32
  call void @_ZN5QFileD1Ev(ptr noundef nonnull align 8 dereferenceable(16) %3) #32
  ret i1 %.110

74:                                               ; preds = %73, %15
  %.pn.pn.pn = phi { ptr, i32 } [ %.pn.pn, %73 ], [ %16, %15 ]
  call void @_ZN9QFileInfoD1Ev(ptr noundef nonnull align 8 dereferenceable(8) %4) #32
  br label %75

75:                                               ; preds = %74, %13
  %.pn.pn.pn.pn = phi { ptr, i32 } [ %.pn.pn.pn, %74 ], [ %14, %13 ]
  call void @_ZN5QFileD1Ev(ptr noundef nonnull align 8 dereferenceable(16) %3) #32
  resume { ptr, i32 } %.pn.pn.pn.pn
}